; Function Attrs: mustprogress nounwind uwtable
define hidden void @_ZN12SerialFullGC13follow_objectEP7oopDesc(ptr noundef %0) local_unnamed_addr #0 align 2 {
  %2 = load i8, ptr @UseCompressedClassPointers, align 1
  %3 = trunc i8 %2 to i1
  %4 = getelementptr inbounds i8, ptr %0, i64 8
  br i1 %3, label %_ZNK7oopDesc11is_objArrayEv.exit, label %_ZNK7oopDesc11is_objArrayEv.exit.thread

_ZNK7oopDesc11is_objArrayEv.exit:                 ; preds = %1
  %5 = load i32, ptr %4, align 8
  %6 = load ptr, ptr @_ZN23CompressedKlassPointers5_baseE, align 8
  %7 = load i32, ptr @_ZN23CompressedKlassPointers6_shiftE, align 4
  %8 = ptrtoint ptr %6 to i64
  %9 = zext i32 %5 to i64
  %10 = zext nneg i32 %7 to i64
  %11 = shl i64 %9, %10
  %12 = add i64 %11, %8
  %13 = inttoptr i64 %12 to ptr
  %14 = getelementptr inbounds i8, ptr %13, i64 12
  %15 = load i32, ptr %14, align 4
  %16 = icmp eq i32 %15, 6
  br i1 %16, label %21, label %_ZN7oopDesc11oop_iterateI18MarkAndPushClosureEEvPT_.exit

_ZNK7oopDesc11is_objArrayEv.exit.thread:          ; preds = %1
  %17 = load ptr, ptr %4, align 8
  %18 = getelementptr inbounds i8, ptr %17, i64 12
  %19 = load i32, ptr %18, align 4
  %20 = icmp eq i32 %19, 6
  br i1 %20, label %21, label %_ZN7oopDesc11oop_iterateI18MarkAndPushClosureEEvPT_.exit

21:                                               ; preds = %_ZNK7oopDesc11is_objArrayEv.exit.thread, %_ZNK7oopDesc11is_objArrayEv.exit
  tail call void @_ZN12SerialFullGC12follow_arrayEP15objArrayOopDesc(ptr noundef nonnull %0)
  br label %26

_ZN7oopDesc11oop_iterateI18MarkAndPushClosureEEvPT_.exit: ; preds = %_ZNK7oopDesc11is_objArrayEv.exit.thread, %_ZNK7oopDesc11is_objArrayEv.exit
  %22 = phi i32 [ %15, %_ZNK7oopDesc11is_objArrayEv.exit ], [ %19, %_ZNK7oopDesc11is_objArrayEv.exit.thread ]
  %.0.i.i3 = phi ptr [ %13, %_ZNK7oopDesc11is_objArrayEv.exit ], [ %17, %_ZNK7oopDesc11is_objArrayEv.exit.thread ]
  %23 = sext i32 %22 to i64
  %24 = getelementptr inbounds [7 x ptr], ptr @_ZN21OopOopIterateDispatchI18MarkAndPushClosureE6_tableE, i64 0, i64 %23
  %25 = load ptr, ptr %24, align 8
  tail call void %25(ptr noundef nonnull @_ZN12SerialFullGC21mark_and_push_closureE, ptr noundef nonnull %0, ptr noundef nonnull %.0.i.i3) #16
  br label %26

26:                                               ; preds = %_ZN7oopDesc11oop_iterateI18MarkAndPushClosureEEvPT_.exit, %21
  ret void
}